target datalayout = "e-m:e-p270:32:32-p271:32:32-p272:64:64-i64:64-i128:128-f80:128-n8:16:32:64-S128"
target triple = "x86_64-pc-linux-gnu"

%"class.pxrInternal_v0_24__pxrReserved__::TraceEvent" = type { %"class.pxrInternal_v0_24__pxrReserved__::TraceKey", i32, i8, i8, i64, %"union.std::aligned_storage<8, 8>::type" }
%"class.pxrInternal_v0_24__pxrReserved__::TraceKey" = type { ptr }
%"union.std::aligned_storage<8, 8>::type" = type { [8 x i8] }

; Function Attrs: mustprogress nounwind uwtable
define noundef zeroext i8 @_ZNK32pxrInternal_v0_24__pxrReserved__10TraceEvent7GetTypeEv(ptr noundef nonnull align 8 dereferenceable(32) %0) #0 align 2 {
  %2 = alloca i8, align 1
  %3 = alloca ptr, align 8
  store ptr %0, ptr %3, align 8
  %4 = load ptr, ptr %3, align 8
  %5 = getelementptr inbounds nuw %"class.pxrInternal_v0_24__pxrReserved__::TraceEvent", ptr %4, i32 0, i32 3
  %6 = load i8, ptr %5, align 1
  switch i8 %6, label %15 [
    i8 0, label %7
    i8 1, label %8
    i8 2, label %9
    i8 3, label %10
    i8 4, label %11
    i8 5, label %12
    i8 6, label %13
    i8 7, label %14
  ]

7:                                                ; preds = %1
  store i8 1, ptr %2, align 1
  br label %16

8:                                                ; preds = %1
  store i8 2, ptr %2, align 1
  br label %16

9:                                                ; preds = %1
  store i8 3, ptr %2, align 1
  br label %16

10:                                               ; preds = %1
  store i8 4, ptr %2, align 1
  br label %16

11:                                               ; preds = %1
  store i8 5, ptr %2, align 1
  br label %16

12:                                               ; preds = %1
  store i8 6, ptr %2, align 1
  br label %16

13:                                               ; preds = %1
  store i8 7, ptr %2, align 1
  br label %16

14:                                               ; preds = %1
  store i8 7, ptr %2, align 1
  br label %16

15:                                               ; preds = %1
  store i8 0, ptr %2, align 1
  br label %16

16:                                               ; preds = %15, %14, %13, %12, %11, %10, %9, %8, %7
  %17 = load i8, ptr %2, align 1
  ret i8 %17
}