; Function Attrs: mustprogress nofree norecurse nosync nounwind willreturn memory(argmem: read) uwtable
define noundef zeroext range(i8 0, 8) i8 @_ZNK32pxrInternal_v0_24__pxrReserved__10TraceEvent7GetTypeEv(ptr nocapture noundef nonnull readonly align 8 dereferenceable(32) %0) local_unnamed_addr #0 align 2 {
  %2 = getelementptr inbounds nuw i8, ptr %0, i64 13
  %3 = load i8, ptr %2, align 1
  %4 = icmp ult i8 %3, 8
  %switch.cast = zext i8 %3 to i64
  %switch.shiftamt = shl nuw nsw i64 %switch.cast, 3
  %switch.downshift = lshr i64 506380101714379265, %switch.shiftamt
  %switch.masked = trunc i64 %switch.downshift to i8
  %.0 = select i1 %4, i8 %switch.masked, i8 0
  ret i8 %.0
}